ARM GAS  C:\Users\nicol\AppData\Local\Temp\cckWUg93.s 			page 1


   1              		.cpu cortex-m7
   2              		.eabi_attribute 28, 1
   3              		.eabi_attribute 20, 1
   4              		.eabi_attribute 21, 1
   5              		.eabi_attribute 23, 3
   6              		.eabi_attribute 24, 1
   7              		.eabi_attribute 25, 1
   8              		.eabi_attribute 26, 1
   9              		.eabi_attribute 30, 2
  10              		.eabi_attribute 34, 1
  11              		.eabi_attribute 18, 4
  12              		.file	"MultiFX_nese10.cpp"
  13              		.text
  14              	.Ltext0:
  15              		.cfi_sections	.debug_frame
  16              		.section	.text._ZN5daisy9ParameterD2Ev,"axG",%progbits,_ZN5daisy9ParameterD5Ev,comdat
  17              		.align	1
  18              		.p2align 2,,3
  19              		.weak	_ZN5daisy9ParameterD2Ev
  20              		.arch armv7e-m
  21              		.syntax unified
  22              		.thumb
  23              		.thumb_func
  24              		.fpu fpv5-d16
  26              	_ZN5daisy9ParameterD2Ev:
  27              	.LVL0:
  28              	.LFB1615:
  29              		.file 1 "../../libdaisy//src/hid/parameter.h"
   1:../../libdaisy//src/hid/parameter.h **** #pragma once
   2:../../libdaisy//src/hid/parameter.h **** #include <stdint.h>
   3:../../libdaisy//src/hid/parameter.h **** #include "hid/ctrl.h"
   4:../../libdaisy//src/hid/parameter.h **** 
   5:../../libdaisy//src/hid/parameter.h **** namespace daisy
   6:../../libdaisy//src/hid/parameter.h **** {
   7:../../libdaisy//src/hid/parameter.h **** /** @addtogroup controls
   8:../../libdaisy//src/hid/parameter.h ****     @{
   9:../../libdaisy//src/hid/parameter.h **** */
  10:../../libdaisy//src/hid/parameter.h **** 
  11:../../libdaisy//src/hid/parameter.h **** /**      Simple parameter mapping tool that takes a 0-1 input from an hid_ctrl. */
  12:../../libdaisy//src/hid/parameter.h **** class Parameter
  13:../../libdaisy//src/hid/parameter.h **** {
  14:../../libdaisy//src/hid/parameter.h ****   public:
  15:../../libdaisy//src/hid/parameter.h ****     /** Curves are applied to the output signal */
  16:../../libdaisy//src/hid/parameter.h ****     enum Curve
  17:../../libdaisy//src/hid/parameter.h ****     {
  18:../../libdaisy//src/hid/parameter.h ****         LINEAR,      /**< Linear curve */
  19:../../libdaisy//src/hid/parameter.h ****         EXPONENTIAL, /**< Exponential curve */
  20:../../libdaisy//src/hid/parameter.h ****         LOGARITHMIC, /**<  Logarithmic curve */
  21:../../libdaisy//src/hid/parameter.h ****         CUBE,        /**< Cubic curve */
  22:../../libdaisy//src/hid/parameter.h ****         LAST,        /**< Final enum element. */
  23:../../libdaisy//src/hid/parameter.h ****     };
  24:../../libdaisy//src/hid/parameter.h ****     /** Constructor */
  25:../../libdaisy//src/hid/parameter.h ****     Parameter() {}
  26:../../libdaisy//src/hid/parameter.h ****     /** Destructor */
  27:../../libdaisy//src/hid/parameter.h ****     ~Parameter() {}
  30              		.loc 1 27 5 view -0
  31              		.cfi_startproc
ARM GAS  C:\Users\nicol\AppData\Local\Temp\cckWUg93.s 			page 2


  32              		@ args = 0, pretend = 0, frame = 0
  33              		@ frame_needed = 0, uses_anonymous_args = 0
  34              		@ link register save eliminated.
  35              	.LBB125:
  36              	.LBI125:
  37              		.file 2 "../../libdaisy//src/hid/ctrl.h"
   1:../../libdaisy//src/hid/ctrl.h **** #pragma once
   2:../../libdaisy//src/hid/ctrl.h **** #ifndef DSY_KNOB_H
   3:../../libdaisy//src/hid/ctrl.h **** #define DSY_KNOB_H /**< & */
   4:../../libdaisy//src/hid/ctrl.h **** #include <stdint.h>
   5:../../libdaisy//src/hid/ctrl.h **** 
   6:../../libdaisy//src/hid/ctrl.h **** #ifdef __cplusplus
   7:../../libdaisy//src/hid/ctrl.h **** namespace daisy
   8:../../libdaisy//src/hid/ctrl.h **** {
   9:../../libdaisy//src/hid/ctrl.h **** /**
  10:../../libdaisy//src/hid/ctrl.h ****     @brief Hardware Interface for control inputs \n 
  11:../../libdaisy//src/hid/ctrl.h ****     Primarily designed for ADC input controls such as \n 
  12:../../libdaisy//src/hid/ctrl.h ****     potentiometers, and control voltage. \n 
  13:../../libdaisy//src/hid/ctrl.h ****     @author Stephen Hensley
  14:../../libdaisy//src/hid/ctrl.h ****     @date November 2019
  15:../../libdaisy//src/hid/ctrl.h ****     @ingroup controls
  16:../../libdaisy//src/hid/ctrl.h **** */
  17:../../libdaisy//src/hid/ctrl.h **** class AnalogControl
  18:../../libdaisy//src/hid/ctrl.h **** {
  19:../../libdaisy//src/hid/ctrl.h ****   public:
  20:../../libdaisy//src/hid/ctrl.h ****     /** Constructor */
  21:../../libdaisy//src/hid/ctrl.h ****     AnalogControl() {}
  22:../../libdaisy//src/hid/ctrl.h ****     /** destructor */
  23:../../libdaisy//src/hid/ctrl.h ****     ~AnalogControl() {}
  38              		.loc 2 23 5 view .LVU1
  39              		.loc 2 23 5 is_stmt 0 view .LVU2
  40              	.LBE125:
  41              		.loc 1 27 19 view .LVU3
  42 0000 7047     		bx	lr
  43              		.cfi_endproc
  44              	.LFE1615:
  46              		.weak	_ZN5daisy9ParameterD1Ev
  47              		.thumb_set _ZN5daisy9ParameterD1Ev,_ZN5daisy9ParameterD2Ev
  48 0002 00BF     		.section	.text._ZN5daisy9DaisySeedD2Ev,"axG",%progbits,_ZN5daisy9DaisySeedD5Ev,comdat
  49              		.align	1
  50              		.p2align 2,,3
  51              		.weak	_ZN5daisy9DaisySeedD2Ev
  52              		.syntax unified
  53              		.thumb
  54              		.thumb_func
  55              		.fpu fpv5-d16
  57              	_ZN5daisy9DaisySeedD2Ev:
  58              	.LVL1:
  59              	.LFB2145:
  60              		.file 3 "../../libdaisy//src/daisy_seed.h"
   1:../../libdaisy//src/daisy_seed.h **** #pragma once
   2:../../libdaisy//src/daisy_seed.h **** #ifndef DSY_SEED_H
   3:../../libdaisy//src/daisy_seed.h **** #define DSY_SEED_H
   4:../../libdaisy//src/daisy_seed.h **** 
   5:../../libdaisy//src/daisy_seed.h **** #include "daisy.h"
   6:../../libdaisy//src/daisy_seed.h **** 
   7:../../libdaisy//src/daisy_seed.h **** //Uncomment this out if you're still using the rev2 hardware
ARM GAS  C:\Users\nicol\AppData\Local\Temp\cckWUg93.s 			page 3


   8:../../libdaisy//src/daisy_seed.h **** //#define SEED_REV2
   9:../../libdaisy//src/daisy_seed.h **** 
  10:../../libdaisy//src/daisy_seed.h **** namespace daisy
  11:../../libdaisy//src/daisy_seed.h **** {
  12:../../libdaisy//src/daisy_seed.h **** /**
  13:../../libdaisy//src/daisy_seed.h ****    @brief This is the higher-level interface for the Daisy board. \n 
  14:../../libdaisy//src/daisy_seed.h ****     All basic peripheral configuration/initialization is setup here. \n
  15:../../libdaisy//src/daisy_seed.h **** 
  16:../../libdaisy//src/daisy_seed.h ****    @ingroup boards
  17:../../libdaisy//src/daisy_seed.h **** */
  18:../../libdaisy//src/daisy_seed.h **** class DaisySeed
  19:../../libdaisy//src/daisy_seed.h **** {
  20:../../libdaisy//src/daisy_seed.h ****   public:
  21:../../libdaisy//src/daisy_seed.h ****     DaisySeed() {}
  22:../../libdaisy//src/daisy_seed.h ****     ~DaisySeed() {}
  61              		.loc 3 22 5 is_stmt 1 view -0
  62              		.cfi_startproc
  63              		@ args = 0, pretend = 0, frame = 0
  64              		@ frame_needed = 0, uses_anonymous_args = 0
  65              		@ link register save eliminated.
  66              	.LBB126:
  67              	.LBI126:
  68              		.file 4 "../../libdaisy//src/sys/system.h"
   1:../../libdaisy//src/sys/system.h **** #ifndef DSY_SYSTEM_H
   2:../../libdaisy//src/sys/system.h **** #define DSY_SYSTEM_H
   3:../../libdaisy//src/sys/system.h **** 
   4:../../libdaisy//src/sys/system.h **** #ifndef UNIT_TEST // for unit tests, a dummy implementation is provided below
   5:../../libdaisy//src/sys/system.h **** 
   6:../../libdaisy//src/sys/system.h **** #include <cstdint>
   7:../../libdaisy//src/sys/system.h **** #include "per/tim.h"
   8:../../libdaisy//src/sys/system.h **** 
   9:../../libdaisy//src/sys/system.h **** namespace daisy
  10:../../libdaisy//src/sys/system.h **** {
  11:../../libdaisy//src/sys/system.h **** /** A handle for interacting with the Core System. 
  12:../../libdaisy//src/sys/system.h ****  ** This includes the Clock tree, MPU, global DMA initialization,
  13:../../libdaisy//src/sys/system.h ****  ** cache handling, and any other necessary global initiailzation
  14:../../libdaisy//src/sys/system.h ****  **
  15:../../libdaisy//src/sys/system.h ****  ** @author shensley
  16:../../libdaisy//src/sys/system.h ****  ** @addtogroup system
  17:../../libdaisy//src/sys/system.h ****  */
  18:../../libdaisy//src/sys/system.h **** class System
  19:../../libdaisy//src/sys/system.h **** {
  20:../../libdaisy//src/sys/system.h ****   public:
  21:../../libdaisy//src/sys/system.h ****     /** Contains settings for initializing the System */
  22:../../libdaisy//src/sys/system.h ****     struct Config
  23:../../libdaisy//src/sys/system.h ****     {
  24:../../libdaisy//src/sys/system.h ****         /** Specifies the system clock frequency that feeds APB/AHB clocks, etc. */
  25:../../libdaisy//src/sys/system.h ****         enum class SysClkFreq
  26:../../libdaisy//src/sys/system.h ****         {
  27:../../libdaisy//src/sys/system.h ****             FREQ_400MHZ,
  28:../../libdaisy//src/sys/system.h ****             FREQ_480MHZ,
  29:../../libdaisy//src/sys/system.h ****         };
  30:../../libdaisy//src/sys/system.h **** 
  31:../../libdaisy//src/sys/system.h ****         /** Method to call on the struct to set to defaults
  32:../../libdaisy//src/sys/system.h ****          ** CPU Freq set to 400MHz
  33:../../libdaisy//src/sys/system.h ****          ** Cache Enabled 
  34:../../libdaisy//src/sys/system.h ****          ** */
ARM GAS  C:\Users\nicol\AppData\Local\Temp\cckWUg93.s 			page 4


  35:../../libdaisy//src/sys/system.h ****         void Defaults()
  36:../../libdaisy//src/sys/system.h ****         {
  37:../../libdaisy//src/sys/system.h ****             cpu_freq    = SysClkFreq::FREQ_400MHZ;
  38:../../libdaisy//src/sys/system.h ****             use_dcache  = true;
  39:../../libdaisy//src/sys/system.h ****             use_icache  = true;
  40:../../libdaisy//src/sys/system.h ****             skip_clocks = false;
  41:../../libdaisy//src/sys/system.h ****         }
  42:../../libdaisy//src/sys/system.h **** 
  43:../../libdaisy//src/sys/system.h ****         /** Method to call on the struct to set to boost mode:
  44:../../libdaisy//src/sys/system.h ****          ** CPU Freq set to 480MHz
  45:../../libdaisy//src/sys/system.h ****          ** Cache Enabled 
  46:../../libdaisy//src/sys/system.h ****          ** */
  47:../../libdaisy//src/sys/system.h ****         void Boost()
  48:../../libdaisy//src/sys/system.h ****         {
  49:../../libdaisy//src/sys/system.h ****             cpu_freq    = SysClkFreq::FREQ_480MHZ;
  50:../../libdaisy//src/sys/system.h ****             use_dcache  = true;
  51:../../libdaisy//src/sys/system.h ****             use_icache  = true;
  52:../../libdaisy//src/sys/system.h ****             skip_clocks = false;
  53:../../libdaisy//src/sys/system.h ****         }
  54:../../libdaisy//src/sys/system.h **** 
  55:../../libdaisy//src/sys/system.h ****         SysClkFreq cpu_freq;
  56:../../libdaisy//src/sys/system.h ****         bool       use_dcache;
  57:../../libdaisy//src/sys/system.h ****         bool       use_icache;
  58:../../libdaisy//src/sys/system.h ****         bool       skip_clocks;
  59:../../libdaisy//src/sys/system.h ****     };
  60:../../libdaisy//src/sys/system.h **** 
  61:../../libdaisy//src/sys/system.h ****     /** Describes the different regions of memory available to the Daisy
  62:../../libdaisy//src/sys/system.h ****      * 
  63:../../libdaisy//src/sys/system.h ****      */
  64:../../libdaisy//src/sys/system.h ****     enum MemoryRegion
  65:../../libdaisy//src/sys/system.h ****     {
  66:../../libdaisy//src/sys/system.h ****         INTERNAL_FLASH = 0,
  67:../../libdaisy//src/sys/system.h ****         ITCMRAM,
  68:../../libdaisy//src/sys/system.h ****         DTCMRAM,
  69:../../libdaisy//src/sys/system.h ****         SRAM_D1,
  70:../../libdaisy//src/sys/system.h ****         SRAM_D2,
  71:../../libdaisy//src/sys/system.h ****         SRAM_D3,
  72:../../libdaisy//src/sys/system.h ****         SDRAM,
  73:../../libdaisy//src/sys/system.h ****         QSPI,
  74:../../libdaisy//src/sys/system.h ****         INVALID_ADDRESS,
  75:../../libdaisy//src/sys/system.h ****     };
  76:../../libdaisy//src/sys/system.h **** 
  77:../../libdaisy//src/sys/system.h ****     System() {}
  78:../../libdaisy//src/sys/system.h ****     ~System() {}
  69              		.loc 4 78 5 view .LVU5
  70              		.loc 4 78 5 is_stmt 0 view .LVU6
  71              	.LBE126:
  72              	.LBB127:
  73              	.LBI127:
  74              		.file 5 "../../libdaisy//src/hid/usb.h"
   1:../../libdaisy//src/hid/usb.h **** #pragma once
   2:../../libdaisy//src/hid/usb.h **** #ifndef DSY_HID_USB_H
   3:../../libdaisy//src/hid/usb.h **** #define DSY_HID_USB_H
   4:../../libdaisy//src/hid/usb.h **** #include <stdint.h>
   5:../../libdaisy//src/hid/usb.h **** #include <stdlib.h>
   6:../../libdaisy//src/hid/usb.h **** 
   7:../../libdaisy//src/hid/usb.h **** namespace daisy
ARM GAS  C:\Users\nicol\AppData\Local\Temp\cckWUg93.s 			page 5


   8:../../libdaisy//src/hid/usb.h **** /** @addtogroup externals
   9:../../libdaisy//src/hid/usb.h ****     @{
  10:../../libdaisy//src/hid/usb.h **** */
  11:../../libdaisy//src/hid/usb.h **** 
  12:../../libdaisy//src/hid/usb.h **** {
  13:../../libdaisy//src/hid/usb.h **** /** 
  14:../../libdaisy//src/hid/usb.h ****     @brief Interface for initializing and using the USB Peripherals on the daisy
  15:../../libdaisy//src/hid/usb.h ****     @author Stephen Hensley
  16:../../libdaisy//src/hid/usb.h ****     @date December 2019
  17:../../libdaisy//src/hid/usb.h **** */
  18:../../libdaisy//src/hid/usb.h **** class UsbHandle
  19:../../libdaisy//src/hid/usb.h **** {
  20:../../libdaisy//src/hid/usb.h ****   public:
  21:../../libdaisy//src/hid/usb.h ****     /** Return values for USBHandle Functions */
  22:../../libdaisy//src/hid/usb.h ****     enum class Result
  23:../../libdaisy//src/hid/usb.h ****     {
  24:../../libdaisy//src/hid/usb.h ****         OK,
  25:../../libdaisy//src/hid/usb.h ****         ERR,
  26:../../libdaisy//src/hid/usb.h ****     };
  27:../../libdaisy//src/hid/usb.h **** 
  28:../../libdaisy//src/hid/usb.h ****     /** Specified which of the two USB Peripherals to initialize. */
  29:../../libdaisy//src/hid/usb.h ****     enum UsbPeriph
  30:../../libdaisy//src/hid/usb.h ****     {
  31:../../libdaisy//src/hid/usb.h ****         FS_INTERNAL, /**< Internal pin */
  32:../../libdaisy//src/hid/usb.h ****         FS_EXTERNAL, /**< FS External D+ pin is Pin 38 (GPIO32). FS External D- pin is Pin 37 (GPIO
  33:../../libdaisy//src/hid/usb.h ****         FS_BOTH,     /**< Both */
  34:../../libdaisy//src/hid/usb.h ****     };
  35:../../libdaisy//src/hid/usb.h **** 
  36:../../libdaisy//src/hid/usb.h **** 
  37:../../libdaisy//src/hid/usb.h ****     /** Function called upon reception of a buffer */
  38:../../libdaisy//src/hid/usb.h ****     typedef void (*ReceiveCallback)(uint8_t* buff, uint32_t* len);
  39:../../libdaisy//src/hid/usb.h **** 
  40:../../libdaisy//src/hid/usb.h ****     UsbHandle() {}
  41:../../libdaisy//src/hid/usb.h **** 
  42:../../libdaisy//src/hid/usb.h ****     ~UsbHandle() {}
  75              		.loc 5 42 5 is_stmt 1 view .LVU7
  76              		.loc 5 42 5 is_stmt 0 view .LVU8
  77              	.LBE127:
  78              	.LBB128:
  79              	.LBI128:
  80              		.file 6 "../../libdaisy//src/per/adc.h"
   1:../../libdaisy//src/per/adc.h **** #pragma once
   2:../../libdaisy//src/per/adc.h **** #ifndef DSY_ADC_H
   3:../../libdaisy//src/per/adc.h **** #define DSY_ADC_H /**< Macro */
   4:../../libdaisy//src/per/adc.h **** #include <stdint.h>
   5:../../libdaisy//src/per/adc.h **** #include <stdlib.h>
   6:../../libdaisy//src/per/adc.h **** #include "daisy_core.h"
   7:../../libdaisy//src/per/adc.h **** #include "per/gpio.h"
   8:../../libdaisy//src/per/adc.h **** 
   9:../../libdaisy//src/per/adc.h **** #define DSY_ADC_MAX_CHANNELS 16 /**< Maximum number of ADC channels */
  10:../../libdaisy//src/per/adc.h **** 
  11:../../libdaisy//src/per/adc.h **** namespace daisy
  12:../../libdaisy//src/per/adc.h **** {
  13:../../libdaisy//src/per/adc.h **** /** @addtogroup analog_digital_conversion
  14:../../libdaisy//src/per/adc.h ****     @{
  15:../../libdaisy//src/per/adc.h **** */
  16:../../libdaisy//src/per/adc.h **** 
ARM GAS  C:\Users\nicol\AppData\Local\Temp\cckWUg93.s 			page 6


  17:../../libdaisy//src/per/adc.h **** /* While there may not be many configuration options here,
  18:../../libdaisy//src/per/adc.h **** using a struct like this allows us to add more configuration
  19:../../libdaisy//src/per/adc.h **** later without breaking existing functionality.
  20:../../libdaisy//src/per/adc.h **** */
  21:../../libdaisy//src/per/adc.h **** 
  22:../../libdaisy//src/per/adc.h **** /** Configuration Structure for a given channel */
  23:../../libdaisy//src/per/adc.h **** struct AdcChannelConfig
  24:../../libdaisy//src/per/adc.h **** {
  25:../../libdaisy//src/per/adc.h ****     /** Which pin to use for multiplexing */
  26:../../libdaisy//src/per/adc.h ****     enum MuxPin
  27:../../libdaisy//src/per/adc.h ****     {
  28:../../libdaisy//src/per/adc.h ****         MUX_SEL_0,    /**< & */
  29:../../libdaisy//src/per/adc.h ****         MUX_SEL_1,    /**< & */
  30:../../libdaisy//src/per/adc.h ****         MUX_SEL_2,    /**< & */
  31:../../libdaisy//src/per/adc.h ****         MUX_SEL_LAST, /**< & */
  32:../../libdaisy//src/per/adc.h ****     };
  33:../../libdaisy//src/per/adc.h **** 
  34:../../libdaisy//src/per/adc.h ****     /** Initializes a single ADC pin as an ADC. 
  35:../../libdaisy//src/per/adc.h ****     \param pin Pin to init.
  36:../../libdaisy//src/per/adc.h ****      */
  37:../../libdaisy//src/per/adc.h ****     void InitSingle(dsy_gpio_pin pin);
  38:../../libdaisy//src/per/adc.h **** 
  39:../../libdaisy//src/per/adc.h ****     /** 
  40:../../libdaisy//src/per/adc.h ****     Initializes a single ADC pin as a Multiplexed ADC.
  41:../../libdaisy//src/per/adc.h ****     Requires a CD405X Multiplexer connected to the pin.
  42:../../libdaisy//src/per/adc.h ****     You only need to supply the mux pins that are required,
  43:../../libdaisy//src/per/adc.h ****     e.g. a 4052 mux would only require mux_0 and mux_1.
  44:../../libdaisy//src/per/adc.h ****     Internal Callbacks handle the pin addressing.
  45:../../libdaisy//src/per/adc.h ****     \param mux_channels must be 1-8
  46:../../libdaisy//src/per/adc.h ****     \param mux_0 First mux pin
  47:../../libdaisy//src/per/adc.h ****     \param mux_1 Second mux pin
  48:../../libdaisy//src/per/adc.h ****     \param mux_2 Third mux pin
  49:../../libdaisy//src/per/adc.h ****     \param adc_pin &
  50:../../libdaisy//src/per/adc.h ****     */
  51:../../libdaisy//src/per/adc.h ****     void InitMux(dsy_gpio_pin adc_pin,
  52:../../libdaisy//src/per/adc.h ****                  size_t       mux_channels,
  53:../../libdaisy//src/per/adc.h ****                  dsy_gpio_pin mux_0,
  54:../../libdaisy//src/per/adc.h ****                  dsy_gpio_pin mux_1 = {DSY_GPIOX, 0},
  55:../../libdaisy//src/per/adc.h ****                  dsy_gpio_pin mux_2 = {DSY_GPIOX, 0});
  56:../../libdaisy//src/per/adc.h **** 
  57:../../libdaisy//src/per/adc.h ****     dsy_gpio pin_;                   /**< & */
  58:../../libdaisy//src/per/adc.h ****     dsy_gpio mux_pin_[MUX_SEL_LAST]; /**< & */
  59:../../libdaisy//src/per/adc.h ****     uint8_t  mux_channels_;          /**< & */
  60:../../libdaisy//src/per/adc.h **** };
  61:../../libdaisy//src/per/adc.h **** 
  62:../../libdaisy//src/per/adc.h **** /**
  63:../../libdaisy//src/per/adc.h ****    Handler for analog to digital conversion
  64:../../libdaisy//src/per/adc.h **** */
  65:../../libdaisy//src/per/adc.h **** class AdcHandle
  66:../../libdaisy//src/per/adc.h **** {
  67:../../libdaisy//src/per/adc.h ****   public:
  68:../../libdaisy//src/per/adc.h ****     /** Supported oversampling amounts */
  69:../../libdaisy//src/per/adc.h ****     enum OverSampling
  70:../../libdaisy//src/per/adc.h ****     {
  71:../../libdaisy//src/per/adc.h ****         OVS_NONE, /**< & */
  72:../../libdaisy//src/per/adc.h ****         OVS_4,    /**< & */
  73:../../libdaisy//src/per/adc.h ****         OVS_8,    /**< & */
ARM GAS  C:\Users\nicol\AppData\Local\Temp\cckWUg93.s 			page 7


  74:../../libdaisy//src/per/adc.h ****         OVS_16,   /**< & */
  75:../../libdaisy//src/per/adc.h ****         OVS_32,   /**< & */
  76:../../libdaisy//src/per/adc.h ****         OVS_64,   /**< & */
  77:../../libdaisy//src/per/adc.h ****         OVS_128,  /**< & */
  78:../../libdaisy//src/per/adc.h ****         OVS_256,  /**< & */
  79:../../libdaisy//src/per/adc.h ****         OVS_512,  /**< & */
  80:../../libdaisy//src/per/adc.h ****         OVS_1024, /**< & */
  81:../../libdaisy//src/per/adc.h ****         OVS_LAST, /**< & */
  82:../../libdaisy//src/per/adc.h ****     };
  83:../../libdaisy//src/per/adc.h **** 
  84:../../libdaisy//src/per/adc.h ****     AdcHandle() {}
  85:../../libdaisy//src/per/adc.h ****     ~AdcHandle() {}
  81              		.loc 6 85 5 is_stmt 1 view .LVU9
  82              		.loc 6 85 5 is_stmt 0 view .LVU10
  83              	.LBE128:
  84              	.LBB129:
  85              	.LBI129:
  86              		.file 7 "../../libdaisy//src/hid/audio.h"
   1:../../libdaisy//src/hid/audio.h **** #ifndef DSY_AUDIO_H
   2:../../libdaisy//src/hid/audio.h **** #define DSY_AUDIO_H /**< & */
   3:../../libdaisy//src/hid/audio.h **** 
   4:../../libdaisy//src/hid/audio.h **** #include "per/sai.h"
   5:../../libdaisy//src/hid/audio.h **** 
   6:../../libdaisy//src/hid/audio.h **** namespace daisy
   7:../../libdaisy//src/hid/audio.h **** {
   8:../../libdaisy//src/hid/audio.h **** class AudioHandle
   9:../../libdaisy//src/hid/audio.h **** {
  10:../../libdaisy//src/hid/audio.h ****   public:
  11:../../libdaisy//src/hid/audio.h ****     /** Manually configurable details about the Audio Engine */
  12:../../libdaisy//src/hid/audio.h ****     /** TODO: Figure out how to get samplerate in here. */
  13:../../libdaisy//src/hid/audio.h ****     struct Config
  14:../../libdaisy//src/hid/audio.h ****     {
  15:../../libdaisy//src/hid/audio.h ****         size_t                        blocksize;
  16:../../libdaisy//src/hid/audio.h ****         SaiHandle::Config::SampleRate samplerate;
  17:../../libdaisy//src/hid/audio.h ****         float                         postgain;
  18:../../libdaisy//src/hid/audio.h ****     };
  19:../../libdaisy//src/hid/audio.h **** 
  20:../../libdaisy//src/hid/audio.h ****     enum class Result
  21:../../libdaisy//src/hid/audio.h ****     {
  22:../../libdaisy//src/hid/audio.h ****         OK,
  23:../../libdaisy//src/hid/audio.h ****         ERR,
  24:../../libdaisy//src/hid/audio.h ****     };
  25:../../libdaisy//src/hid/audio.h **** 
  26:../../libdaisy//src/hid/audio.h ****     /** Non-Interleaving input buffer
  27:../../libdaisy//src/hid/audio.h ****      * Buffer arranged by float[chn][sample] 
  28:../../libdaisy//src/hid/audio.h ****      * const so that the user can't modify the input
  29:../../libdaisy//src/hid/audio.h ****     */
  30:../../libdaisy//src/hid/audio.h ****     typedef const float* const* InputBuffer;
  31:../../libdaisy//src/hid/audio.h **** 
  32:../../libdaisy//src/hid/audio.h ****     /** Non-Interleaving output buffer
  33:../../libdaisy//src/hid/audio.h ****      * Arranged by float[chn][sample] 
  34:../../libdaisy//src/hid/audio.h ****     */
  35:../../libdaisy//src/hid/audio.h ****     typedef float** OutputBuffer;
  36:../../libdaisy//src/hid/audio.h **** 
  37:../../libdaisy//src/hid/audio.h ****     /** Type for a Non-Interleaving audio callback 
  38:../../libdaisy//src/hid/audio.h ****    * Non-Interleaving audio callbacks in daisy will be of this type
  39:../../libdaisy//src/hid/audio.h ****   */
ARM GAS  C:\Users\nicol\AppData\Local\Temp\cckWUg93.s 			page 8


  40:../../libdaisy//src/hid/audio.h ****     typedef void (*AudioCallback)(InputBuffer  in,
  41:../../libdaisy//src/hid/audio.h ****                                   OutputBuffer out,
  42:../../libdaisy//src/hid/audio.h ****                                   size_t       size);
  43:../../libdaisy//src/hid/audio.h **** 
  44:../../libdaisy//src/hid/audio.h ****     /** Interleaving Input buffer
  45:../../libdaisy//src/hid/audio.h ****      ** audio is prepared as { L0, R0, L1, R1, . . . LN, RN }]
  46:../../libdaisy//src/hid/audio.h ****      ** this is const, as the user shouldn't modify it
  47:../../libdaisy//src/hid/audio.h ****     */
  48:../../libdaisy//src/hid/audio.h ****     typedef const float* InterleavingInputBuffer;
  49:../../libdaisy//src/hid/audio.h **** 
  50:../../libdaisy//src/hid/audio.h ****     /** Interleaving Output buffer 
  51:../../libdaisy//src/hid/audio.h ****      ** audio is prepared as { L0, R0, L1, R1, . . . LN, RN }
  52:../../libdaisy//src/hid/audio.h ****     */
  53:../../libdaisy//src/hid/audio.h ****     typedef float* InterleavingOutputBuffer;
  54:../../libdaisy//src/hid/audio.h **** 
  55:../../libdaisy//src/hid/audio.h ****     /** Interleaving Audio Callback 
  56:../../libdaisy//src/hid/audio.h ****    * Interleaving audio callbacks in daisy must be of this type
  57:../../libdaisy//src/hid/audio.h ****   */
  58:../../libdaisy//src/hid/audio.h ****     typedef void (*InterleavingAudioCallback)(InterleavingInputBuffer  in,
  59:../../libdaisy//src/hid/audio.h ****                                               InterleavingOutputBuffer out,
  60:../../libdaisy//src/hid/audio.h ****                                               size_t                   size);
  61:../../libdaisy//src/hid/audio.h **** 
  62:../../libdaisy//src/hid/audio.h ****     AudioHandle() : pimpl_(nullptr) {}
  63:../../libdaisy//src/hid/audio.h ****     ~AudioHandle() {}
  87              		.loc 7 63 5 is_stmt 1 view .LVU11
  88              		.loc 7 63 5 is_stmt 0 view .LVU12
  89              	.LBE129:
  90              		.loc 3 22 19 view .LVU13
  91 0000 7047     		bx	lr
  92              		.cfi_endproc
  93              	.LFE2145:
  95              		.weak	_ZN5daisy9DaisySeedD1Ev
  96              		.thumb_set _ZN5daisy9DaisySeedD1Ev,_ZN5daisy9DaisySeedD2Ev
  97 0002 00BF     		.section	.text._ZN7daisysp6PhaserD2Ev,"axG",%progbits,_ZN7daisysp6PhaserD5Ev,comdat
  98              		.align	1
  99              		.p2align 2,,3
 100              		.weak	_ZN7daisysp6PhaserD2Ev
 101              		.syntax unified
 102              		.thumb
 103              		.thumb_func
 104              		.fpu fpv5-d16
 106              	_ZN7daisysp6PhaserD2Ev:
 107              	.LVL2:
 108              	.LFB4052:
 109              		.file 8 "../../DaisySP//Source/Effects/phaser.h"
   1:../../DaisySP//Source/Effects/phaser.h **** #pragma once
   2:../../DaisySP//Source/Effects/phaser.h **** #ifndef DSY_PHASER_H
   3:../../DaisySP//Source/Effects/phaser.h **** #define DSY_PHASER_H
   4:../../DaisySP//Source/Effects/phaser.h **** #ifdef __cplusplus
   5:../../DaisySP//Source/Effects/phaser.h **** 
   6:../../DaisySP//Source/Effects/phaser.h **** #include <stdint.h>
   7:../../DaisySP//Source/Effects/phaser.h **** #include "Utility/delayline.h"
   8:../../DaisySP//Source/Effects/phaser.h **** 
   9:../../DaisySP//Source/Effects/phaser.h **** /** @file phaser.h */
  10:../../DaisySP//Source/Effects/phaser.h **** 
  11:../../DaisySP//Source/Effects/phaser.h **** namespace daisysp
  12:../../DaisySP//Source/Effects/phaser.h **** {
ARM GAS  C:\Users\nicol\AppData\Local\Temp\cckWUg93.s 			page 9


  13:../../DaisySP//Source/Effects/phaser.h **** /**  
  14:../../DaisySP//Source/Effects/phaser.h ****     @brief Single Phaser engine. Used in Phaser.
  15:../../DaisySP//Source/Effects/phaser.h ****     @author Ben Sergentanis
  16:../../DaisySP//Source/Effects/phaser.h **** */
  17:../../DaisySP//Source/Effects/phaser.h **** class PhaserEngine
  18:../../DaisySP//Source/Effects/phaser.h **** {
  19:../../DaisySP//Source/Effects/phaser.h ****   public:
  20:../../DaisySP//Source/Effects/phaser.h ****     PhaserEngine() {}
  21:../../DaisySP//Source/Effects/phaser.h ****     ~PhaserEngine() {}
  22:../../DaisySP//Source/Effects/phaser.h **** 
  23:../../DaisySP//Source/Effects/phaser.h ****     /** Initialize the module
  24:../../DaisySP//Source/Effects/phaser.h ****         \param sample_rate Audio engine sample rate.
  25:../../DaisySP//Source/Effects/phaser.h ****     */
  26:../../DaisySP//Source/Effects/phaser.h ****     void Init(float sample_rate);
  27:../../DaisySP//Source/Effects/phaser.h **** 
  28:../../DaisySP//Source/Effects/phaser.h ****     /** Get the next sample
  29:../../DaisySP//Source/Effects/phaser.h ****         \param in Sample to process
  30:../../DaisySP//Source/Effects/phaser.h ****     */
  31:../../DaisySP//Source/Effects/phaser.h ****     float Process(float in);
  32:../../DaisySP//Source/Effects/phaser.h **** 
  33:../../DaisySP//Source/Effects/phaser.h ****     /** How much to modulate the allpass filter by.
  34:../../DaisySP//Source/Effects/phaser.h ****         \param depth Works 0-1.
  35:../../DaisySP//Source/Effects/phaser.h ****     */
  36:../../DaisySP//Source/Effects/phaser.h ****     void SetLfoDepth(float depth);
  37:../../DaisySP//Source/Effects/phaser.h **** 
  38:../../DaisySP//Source/Effects/phaser.h ****     /** Set lfo frequency.
  39:../../DaisySP//Source/Effects/phaser.h ****         \param lfo_freq Frequency in Hz
  40:../../DaisySP//Source/Effects/phaser.h ****     */
  41:../../DaisySP//Source/Effects/phaser.h ****     void SetLfoFreq(float lfo_freq);
  42:../../DaisySP//Source/Effects/phaser.h **** 
  43:../../DaisySP//Source/Effects/phaser.h ****     /** Set the allpass frequency
  44:../../DaisySP//Source/Effects/phaser.h ****         \param ap_freq Frequency in Hz.
  45:../../DaisySP//Source/Effects/phaser.h ****     */
  46:../../DaisySP//Source/Effects/phaser.h ****     void SetFreq(float ap_freq);
  47:../../DaisySP//Source/Effects/phaser.h **** 
  48:../../DaisySP//Source/Effects/phaser.h ****     /** Set the feedback amount.
  49:../../DaisySP//Source/Effects/phaser.h ****         \param feedback Amount from 0-1.
  50:../../DaisySP//Source/Effects/phaser.h ****     */
  51:../../DaisySP//Source/Effects/phaser.h ****     void SetFeedback(float feedback);
  52:../../DaisySP//Source/Effects/phaser.h **** 
  53:../../DaisySP//Source/Effects/phaser.h ****   private:
  54:../../DaisySP//Source/Effects/phaser.h ****     float                    sample_rate_;
  55:../../DaisySP//Source/Effects/phaser.h ****     static constexpr int32_t kDelayLength
  56:../../DaisySP//Source/Effects/phaser.h ****         = 2400; // 50 ms at 48kHz = .05 * 48000
  57:../../DaisySP//Source/Effects/phaser.h **** 
  58:../../DaisySP//Source/Effects/phaser.h ****     //triangle lfo
  59:../../DaisySP//Source/Effects/phaser.h ****     float lfo_phase_;
  60:../../DaisySP//Source/Effects/phaser.h ****     float lfo_freq_;
  61:../../DaisySP//Source/Effects/phaser.h ****     float lfo_amp_;
  62:../../DaisySP//Source/Effects/phaser.h **** 
  63:../../DaisySP//Source/Effects/phaser.h ****     float os_;
  64:../../DaisySP//Source/Effects/phaser.h **** 
  65:../../DaisySP//Source/Effects/phaser.h ****     float feedback_;
  66:../../DaisySP//Source/Effects/phaser.h ****     float ap_freq_;
  67:../../DaisySP//Source/Effects/phaser.h **** 
  68:../../DaisySP//Source/Effects/phaser.h ****     float deltime_;
  69:../../DaisySP//Source/Effects/phaser.h ****     float last_sample_;
ARM GAS  C:\Users\nicol\AppData\Local\Temp\cckWUg93.s 			page 10


  70:../../DaisySP//Source/Effects/phaser.h **** 
  71:../../DaisySP//Source/Effects/phaser.h ****     DelayLine<float, kDelayLength> del_;
  72:../../DaisySP//Source/Effects/phaser.h **** 
  73:../../DaisySP//Source/Effects/phaser.h ****     float ProcessLfo();
  74:../../DaisySP//Source/Effects/phaser.h **** };
  75:../../DaisySP//Source/Effects/phaser.h **** 
  76:../../DaisySP//Source/Effects/phaser.h **** //wraps up all of the phaser engines
  77:../../DaisySP//Source/Effects/phaser.h **** /**  
  78:../../DaisySP//Source/Effects/phaser.h ****     @brief Phaser Effect.
  79:../../DaisySP//Source/Effects/phaser.h ****     @author Ben Sergentanis
  80:../../DaisySP//Source/Effects/phaser.h ****     @date Jan 2021
  81:../../DaisySP//Source/Effects/phaser.h **** */
  82:../../DaisySP//Source/Effects/phaser.h **** class Phaser
  83:../../DaisySP//Source/Effects/phaser.h **** {
  84:../../DaisySP//Source/Effects/phaser.h ****   public:
  85:../../DaisySP//Source/Effects/phaser.h ****     Phaser() {}
  86:../../DaisySP//Source/Effects/phaser.h ****     ~Phaser() {}
 110              		.loc 8 86 5 is_stmt 1 view -0
 111              		.cfi_startproc
 112              		@ args = 0, pretend = 0, frame = 0
 113              		@ frame_needed = 0, uses_anonymous_args = 0
 114              		@ link register save eliminated.
 115              		.loc 8 86 16 is_stmt 0 view .LVU15
 116 0000 7047     		bx	lr
 117              		.cfi_endproc
 118              	.LFE4052:
 120              		.weak	_ZN7daisysp6PhaserD1Ev
 121              		.thumb_set _ZN7daisysp6PhaserD1Ev,_ZN7daisysp6PhaserD2Ev
 122              		.section	.text._ZN7daisysp7TremoloD2Ev,"axG",%progbits,_ZN7daisysp7TremoloD5Ev,comdat
 123              		.align	1
 124              		.p2align 2,,3
 125              		.weak	_ZN7daisysp7TremoloD2Ev
 126              		.syntax unified
 127              		.thumb
 128              		.thumb_func
 129              		.fpu fpv5-d16
 131              	_ZN7daisysp7TremoloD2Ev:
 132              	.LVL3:
 133              	.LFB4078:
 134              		.file 9 "../../DaisySP//Source/Effects/tremolo.h"
   1:../../DaisySP//Source/Effects/tremolo.h **** #pragma once
   2:../../DaisySP//Source/Effects/tremolo.h **** #ifndef DSY_TREMOLO_H
   3:../../DaisySP//Source/Effects/tremolo.h **** #define DSY_TREMOLO_H
   4:../../DaisySP//Source/Effects/tremolo.h **** 
   5:../../DaisySP//Source/Effects/tremolo.h **** #include <stdint.h>
   6:../../DaisySP//Source/Effects/tremolo.h **** #ifdef __cplusplus
   7:../../DaisySP//Source/Effects/tremolo.h **** 
   8:../../DaisySP//Source/Effects/tremolo.h **** #include <math.h>
   9:../../DaisySP//Source/Effects/tremolo.h **** #include "Synthesis/oscillator.h"
  10:../../DaisySP//Source/Effects/tremolo.h **** 
  11:../../DaisySP//Source/Effects/tremolo.h **** /** @file tremolo.h */
  12:../../DaisySP//Source/Effects/tremolo.h **** 
  13:../../DaisySP//Source/Effects/tremolo.h **** namespace daisysp
  14:../../DaisySP//Source/Effects/tremolo.h **** {
  15:../../DaisySP//Source/Effects/tremolo.h **** /**  
  16:../../DaisySP//Source/Effects/tremolo.h ****     @brief Tremolo effect.
  17:../../DaisySP//Source/Effects/tremolo.h ****     @author Ben Sergentanis
ARM GAS  C:\Users\nicol\AppData\Local\Temp\cckWUg93.s 			page 11


  18:../../DaisySP//Source/Effects/tremolo.h ****     @date Jan 2021
  19:../../DaisySP//Source/Effects/tremolo.h ****     Based on https://christianfloisand.wordpress.com/2012/04/18/coding-some-tremolo/ \n
  20:../../DaisySP//Source/Effects/tremolo.h **** */
  21:../../DaisySP//Source/Effects/tremolo.h **** class Tremolo
  22:../../DaisySP//Source/Effects/tremolo.h **** {
  23:../../DaisySP//Source/Effects/tremolo.h ****   public:
  24:../../DaisySP//Source/Effects/tremolo.h ****     Tremolo() {}
  25:../../DaisySP//Source/Effects/tremolo.h ****     ~Tremolo() {}
 135              		.loc 9 25 5 is_stmt 1 view -0
 136              		.cfi_startproc
 137              		@ args = 0, pretend = 0, frame = 0
 138              		@ frame_needed = 0, uses_anonymous_args = 0
 139              		@ link register save eliminated.
 140              	.LBB130:
 141              	.LBI130:
 142              		.file 10 "../../DaisySP//Source/Synthesis/oscillator.h"
   1:../../DaisySP//Source/Synthesis/oscillator.h **** #pragma once
   2:../../DaisySP//Source/Synthesis/oscillator.h **** #ifndef DSY_OSCILLATOR_H
   3:../../DaisySP//Source/Synthesis/oscillator.h **** #define DSY_OSCILLATOR_H
   4:../../DaisySP//Source/Synthesis/oscillator.h **** #include <stdint.h>
   5:../../DaisySP//Source/Synthesis/oscillator.h **** #include "Utility/dsp.h"
   6:../../DaisySP//Source/Synthesis/oscillator.h **** #ifdef __cplusplus
   7:../../DaisySP//Source/Synthesis/oscillator.h **** 
   8:../../DaisySP//Source/Synthesis/oscillator.h **** namespace daisysp
   9:../../DaisySP//Source/Synthesis/oscillator.h **** {
  10:../../DaisySP//Source/Synthesis/oscillator.h **** /** Synthesis of several waveforms, including polyBLEP bandlimited waveforms.
  11:../../DaisySP//Source/Synthesis/oscillator.h **** */
  12:../../DaisySP//Source/Synthesis/oscillator.h **** class Oscillator
  13:../../DaisySP//Source/Synthesis/oscillator.h **** {
  14:../../DaisySP//Source/Synthesis/oscillator.h ****   public:
  15:../../DaisySP//Source/Synthesis/oscillator.h ****     Oscillator() {}
  16:../../DaisySP//Source/Synthesis/oscillator.h ****     ~Oscillator() {}
 143              		.loc 10 16 5 view .LVU17
 144              		.loc 10 16 5 is_stmt 0 view .LVU18
 145              	.LBE130:
 146              		.loc 9 25 17 view .LVU19
 147 0000 7047     		bx	lr
 148              		.cfi_endproc
 149              	.LFE4078:
 151              		.weak	_ZN7daisysp7TremoloD1Ev
 152              		.thumb_set _ZN7daisysp7TremoloD1Ev,_ZN7daisysp7TremoloD2Ev
 153 0002 00BF     		.section	.text._Z13AudioCallbackPKPKfPPfj,"ax",%progbits
 154              		.align	1
 155              		.p2align 2,,3
 156              		.global	_Z13AudioCallbackPKPKfPPfj
 157              		.syntax unified
 158              		.thumb
 159              		.thumb_func
 160              		.fpu fpv5-d16
 162              	_Z13AudioCallbackPKPKfPPfj:
 163              	.LVL4:
 164              	.LFB4396:
 165              		.file 11 "MultiFX_nese10.cpp"
   1:MultiFX_nese10.cpp **** #include "daisy_seed.h"
   2:MultiFX_nese10.cpp **** #include "daisysp.h"
   3:MultiFX_nese10.cpp **** 
   4:MultiFX_nese10.cpp **** // Set max delay time to 0.75 of samplerate.
ARM GAS  C:\Users\nicol\AppData\Local\Temp\cckWUg93.s 			page 12


   5:MultiFX_nese10.cpp **** #define MAX_DELAY static_cast<size_t>(48000 * 2.5f)
   6:MultiFX_nese10.cpp **** 
   7:MultiFX_nese10.cpp **** using namespace daisy;
   8:MultiFX_nese10.cpp **** using namespace daisysp;
   9:MultiFX_nese10.cpp **** 
  10:MultiFX_nese10.cpp **** static DaisySeed hw;
  11:MultiFX_nese10.cpp **** 
  12:MultiFX_nese10.cpp **** static Phaser										phas;
  13:MultiFX_nese10.cpp **** static DelayLine<float, MAX_DELAY> DSY_SDRAM_BSS 	dell;
  14:MultiFX_nese10.cpp **** static DelayLine<float, MAX_DELAY> DSY_SDRAM_BSS 	delr;
  15:MultiFX_nese10.cpp **** static Tremolo										trem;
  16:MultiFX_nese10.cpp **** static Parameter deltime;
  17:MultiFX_nese10.cpp **** 
  18:MultiFX_nese10.cpp **** float currentDelay, feedback, delayTarget, cutoff, dryWet[4];
  19:MultiFX_nese10.cpp **** bool effectOn[3];
  20:MultiFX_nese10.cpp **** 
  21:MultiFX_nese10.cpp **** enum FX_types {
  22:MultiFX_nese10.cpp **** 	PHAS,
  23:MultiFX_nese10.cpp **** 	DEL,
  24:MultiFX_nese10.cpp **** 	TREM,
  25:MultiFX_nese10.cpp **** 	// DRY,
  26:MultiFX_nese10.cpp **** 	// ALL,
  27:MultiFX_nese10.cpp **** };
  28:MultiFX_nese10.cpp **** 
  29:MultiFX_nese10.cpp **** FX_types which_FX;	//Here is stored the value of the actual effect
  30:MultiFX_nese10.cpp **** 
  31:MultiFX_nese10.cpp **** void AudioCallback(AudioHandle::InputBuffer in, AudioHandle::OutputBuffer out, size_t size)
  32:MultiFX_nese10.cpp **** {
 166              		.loc 11 32 1 is_stmt 1 view -0
 167              		.cfi_startproc
 168              		@ args = 0, pretend = 0, frame = 0
 169              		@ frame_needed = 0, uses_anonymous_args = 0
 170              		@ link register save eliminated.
  33:MultiFX_nese10.cpp **** 	for (size_t i = 0; i < size; i++)
 171              		.loc 11 33 2 view .LVU21
 172              	.LBB131:
 173              		.loc 11 33 23 view .LVU22
 174 0000 9AB1     		cbz	r2, .L14
 175 0002 0368     		ldr	r3, [r0]
 176 0004 4068     		ldr	r0, [r0, #4]
 177              	.LVL5:
 178              		.loc 11 33 23 is_stmt 0 view .LVU23
 179 0006 03EB820C 		add	ip, r3, r2, lsl #2
 180              	.LBE131:
  32:MultiFX_nese10.cpp **** 	for (size_t i = 0; i < size; i++)
 181              		.loc 11 32 1 view .LVU24
 182 000a 10B4     		push	{r4}
 183              		.cfi_def_cfa_offset 4
 184              		.cfi_offset 4, -4
 185 000c 0C68     		ldr	r4, [r1]
 186 000e 4968     		ldr	r1, [r1, #4]
 187              	.LVL6:
 188              	.L8:
 189              	.LBB132:
  34:MultiFX_nese10.cpp **** 	{
  35:MultiFX_nese10.cpp **** 		out[0][i] = in[0][i];
 190              		.loc 11 35 3 is_stmt 1 discriminator 2 view .LVU25
ARM GAS  C:\Users\nicol\AppData\Local\Temp\cckWUg93.s 			page 13


 191              		.loc 11 35 22 is_stmt 0 discriminator 2 view .LVU26
 192 0010 53F8042B 		ldr	r2, [r3], #4	@ float
 193              		.loc 11 35 13 discriminator 2 view .LVU27
 194 0014 44F8042B 		str	r2, [r4], #4	@ float
  36:MultiFX_nese10.cpp **** 		out[1][i] = in[1][i];
 195              		.loc 11 36 3 is_stmt 1 discriminator 2 view .LVU28
  33:MultiFX_nese10.cpp **** 	{
 196              		.loc 11 33 23 is_stmt 0 discriminator 2 view .LVU29
 197 0018 6345     		cmp	r3, ip
 198              		.loc 11 36 22 discriminator 2 view .LVU30
 199 001a 50F8042B 		ldr	r2, [r0], #4	@ float
 200              		.loc 11 36 13 discriminator 2 view .LVU31
 201 001e 41F8042B 		str	r2, [r1], #4	@ float
  33:MultiFX_nese10.cpp **** 	{
 202              		.loc 11 33 2 is_stmt 1 discriminator 2 view .LVU32
  33:MultiFX_nese10.cpp **** 	{
 203              		.loc 11 33 23 discriminator 2 view .LVU33
 204 0022 F5D1     		bne	.L8
 205              	.LBE132:
  37:MultiFX_nese10.cpp **** 	}
  38:MultiFX_nese10.cpp **** }
 206              		.loc 11 38 1 is_stmt 0 view .LVU34
 207 0024 5DF8044B 		ldr	r4, [sp], #4
 208              		.cfi_restore 4
 209              		.cfi_def_cfa_offset 0
 210 0028 7047     		bx	lr
 211              	.LVL7:
 212              	.L14:
 213              		.loc 11 38 1 view .LVU35
 214 002a 7047     		bx	lr
 215              		.cfi_endproc
 216              	.LFE4396:
 218              		.section	.text._ZN7daisysp9DelayLineIfLj120000EED2Ev,"axG",%progbits,_ZN7daisysp9DelayLineIfLj1200
 219              		.align	1
 220              		.p2align 2,,3
 221              		.weak	_ZN7daisysp9DelayLineIfLj120000EED2Ev
 222              		.syntax unified
 223              		.thumb
 224              		.thumb_func
 225              		.fpu fpv5-d16
 227              	_ZN7daisysp9DelayLineIfLj120000EED2Ev:
 228              	.LVL8:
 229              	.LFB4961:
 230              		.file 12 "../../DaisySP//Source/Utility/delayline.h"
   1:../../DaisySP//Source/Utility/delayline.h **** #pragma once
   2:../../DaisySP//Source/Utility/delayline.h **** #ifndef DSY_DELAY_H
   3:../../DaisySP//Source/Utility/delayline.h **** #define DSY_DELAY_H
   4:../../DaisySP//Source/Utility/delayline.h **** #include <stdlib.h>
   5:../../DaisySP//Source/Utility/delayline.h **** #include <stdint.h>
   6:../../DaisySP//Source/Utility/delayline.h **** namespace daisysp
   7:../../DaisySP//Source/Utility/delayline.h **** {
   8:../../DaisySP//Source/Utility/delayline.h **** /** Simple Delay line.
   9:../../DaisySP//Source/Utility/delayline.h **** November 2019
  10:../../DaisySP//Source/Utility/delayline.h **** 
  11:../../DaisySP//Source/Utility/delayline.h **** Converted to Template December 2019
  12:../../DaisySP//Source/Utility/delayline.h **** 
  13:../../DaisySP//Source/Utility/delayline.h **** declaration example: (1 second of floats)
ARM GAS  C:\Users\nicol\AppData\Local\Temp\cckWUg93.s 			page 14


  14:../../DaisySP//Source/Utility/delayline.h **** 
  15:../../DaisySP//Source/Utility/delayline.h **** DelayLine<float, SAMPLE_RATE> del;
  16:../../DaisySP//Source/Utility/delayline.h **** 
  17:../../DaisySP//Source/Utility/delayline.h **** By: shensley
  18:../../DaisySP//Source/Utility/delayline.h **** */
  19:../../DaisySP//Source/Utility/delayline.h **** template <typename T, size_t max_size>
  20:../../DaisySP//Source/Utility/delayline.h **** class DelayLine
  21:../../DaisySP//Source/Utility/delayline.h **** {
  22:../../DaisySP//Source/Utility/delayline.h ****   public:
  23:../../DaisySP//Source/Utility/delayline.h ****     DelayLine() {}
  24:../../DaisySP//Source/Utility/delayline.h ****     ~DelayLine() {}
 231              		.loc 12 24 5 is_stmt 1 view -0
 232              		.cfi_startproc
 233              		@ args = 0, pretend = 0, frame = 0
 234              		@ frame_needed = 0, uses_anonymous_args = 0
 235              		@ link register save eliminated.
 236              		.loc 12 24 19 is_stmt 0 view .LVU37
 237 0000 7047     		bx	lr
 238              		.cfi_endproc
 239              	.LFE4961:
 241              		.weak	_ZN7daisysp9DelayLineIfLj120000EED1Ev
 242              		.thumb_set _ZN7daisysp9DelayLineIfLj120000EED1Ev,_ZN7daisysp9DelayLineIfLj120000EED2Ev
 243              		.section	.text.startup.main,"ax",%progbits
 244              		.align	1
 245              		.p2align 2,,3
 246              		.global	main
 247              		.syntax unified
 248              		.thumb
 249              		.thumb_func
 250              		.fpu fpv5-d16
 252              	main:
 253              	.LFB4397:
  39:MultiFX_nese10.cpp **** 
  40:MultiFX_nese10.cpp **** int main(void)
  41:MultiFX_nese10.cpp **** {
 254              		.loc 11 41 1 is_stmt 1 view -0
 255              		.cfi_startproc
 256              		@ Volatile: function does not return.
 257              		@ args = 0, pretend = 0, frame = 0
 258              		@ frame_needed = 0, uses_anonymous_args = 0
  42:MultiFX_nese10.cpp **** 	hw.Init();
 259              		.loc 11 42 2 view .LVU39
  41:MultiFX_nese10.cpp **** 	hw.Init();
 260              		.loc 11 41 1 is_stmt 0 view .LVU40
 261 0000 08B5     		push	{r3, lr}
 262              		.cfi_def_cfa_offset 8
 263              		.cfi_offset 3, -8
 264              		.cfi_offset 14, -4
 265              		.loc 11 42 9 view .LVU41
 266 0002 0021     		movs	r1, #0
 267 0004 0748     		ldr	r0, .L21
 268 0006 FFF7FEFF 		bl	_ZN5daisy9DaisySeed4InitEb
 269              	.LVL9:
  43:MultiFX_nese10.cpp **** 	hw.SetAudioBlockSize(4); // number of samples handled per callback
 270              		.loc 11 43 2 is_stmt 1 view .LVU42
 271              		.loc 11 43 22 is_stmt 0 view .LVU43
 272 000a 0421     		movs	r1, #4
ARM GAS  C:\Users\nicol\AppData\Local\Temp\cckWUg93.s 			page 15


 273 000c 0548     		ldr	r0, .L21
 274 000e FFF7FEFF 		bl	_ZN5daisy9DaisySeed17SetAudioBlockSizeEj
 275              	.LVL10:
  44:MultiFX_nese10.cpp **** 	hw.SetAudioSampleRate(SaiHandle::Config::SampleRate::SAI_48KHZ);
 276              		.loc 11 44 2 is_stmt 1 view .LVU44
 277              		.loc 11 44 23 is_stmt 0 view .LVU45
 278 0012 0321     		movs	r1, #3
 279 0014 0348     		ldr	r0, .L21
 280 0016 FFF7FEFF 		bl	_ZN5daisy9DaisySeed18SetAudioSampleRateENS_9SaiHandle6Config10SampleRateE
 281              	.LVL11:
  45:MultiFX_nese10.cpp **** 	hw.StartAudio(AudioCallback);
 282              		.loc 11 45 2 is_stmt 1 view .LVU46
 283              		.loc 11 45 15 is_stmt 0 view .LVU47
 284 001a 0349     		ldr	r1, .L21+4
 285 001c 0148     		ldr	r0, .L21
 286 001e FFF7FEFF 		bl	_ZN5daisy9DaisySeed10StartAudioEPFvPKPKfPPfjE
 287              	.LVL12:
 288              	.L19:
  46:MultiFX_nese10.cpp **** 	while(1) {}
 289              		.loc 11 46 2 is_stmt 1 discriminator 1 view .LVU48
 290              		.loc 11 46 2 discriminator 1 view .LVU49
 291              		.loc 11 46 2 discriminator 1 view .LVU50
 292              		.loc 11 46 2 discriminator 1 view .LVU51
 293 0022 FEE7     		b	.L19
 294              	.L22:
 295              		.align	2
 296              	.L21:
 297 0024 00000000 		.word	.LANCHOR0
 298 0028 00000000 		.word	_Z13AudioCallbackPKPKfPPfj
 299              		.cfi_endproc
 300              	.LFE4397:
 302              		.section	.text.startup._GLOBAL__sub_I_currentDelay,"ax",%progbits
 303              		.align	1
 304              		.p2align 2,,3
 305              		.syntax unified
 306              		.thumb
 307              		.thumb_func
 308              		.fpu fpv5-d16
 310              	_GLOBAL__sub_I_currentDelay:
 311              	.LFB4963:
  47:MultiFX_nese10.cpp **** }
 312              		.loc 11 47 1 view -0
 313              		.cfi_startproc
 314              		@ args = 0, pretend = 0, frame = 0
 315              		@ frame_needed = 0, uses_anonymous_args = 0
 316              	.LBB167:
 317              	.LBI167:
 318              		.loc 11 47 1 view .LVU53
 319              	.LVL13:
 320              	.LBB168:
 321              	.LBB169:
 322              	.LBI169:
  21:../../libdaisy//src/daisy_seed.h ****     ~DaisySeed() {}
 323              		.loc 3 21 5 view .LVU54
 324              	.LBB170:
 325              	.LBB171:
 326              	.LBI171:
ARM GAS  C:\Users\nicol\AppData\Local\Temp\cckWUg93.s 			page 16


 327              		.file 13 "../../libdaisy//src/per/qspi.h"
   1:../../libdaisy//src/per/qspi.h **** #ifndef DSY_QSPI
   2:../../libdaisy//src/per/qspi.h **** #define DSY_QSPI /**< Macro */
   3:../../libdaisy//src/per/qspi.h **** 
   4:../../libdaisy//src/per/qspi.h **** #ifndef UNIT_TEST // for unit tests, a dummy implementation
   5:../../libdaisy//src/per/qspi.h **** 
   6:../../libdaisy//src/per/qspi.h **** #include <cstdint>
   7:../../libdaisy//src/per/qspi.h **** #include "daisy_core.h" // Added for dsy_gpio_pin typedef
   8:../../libdaisy//src/per/qspi.h **** 
   9:../../libdaisy//src/per/qspi.h **** #define DSY_QSPI_TEXT       \
  10:../../libdaisy//src/per/qspi.h ****     __attribute__((section( \
  11:../../libdaisy//src/per/qspi.h ****         ".qspiflash_text"))) /**< used for reading memory in memory_mapped mode. */
  12:../../libdaisy//src/per/qspi.h **** #define DSY_QSPI_DATA       \
  13:../../libdaisy//src/per/qspi.h ****     __attribute__((section( \
  14:../../libdaisy//src/per/qspi.h ****         ".qspiflash_data"))) /**< used for reading memory in memory_mapped mode. */
  15:../../libdaisy//src/per/qspi.h **** #define DSY_QSPI_BSS        \
  16:../../libdaisy//src/per/qspi.h ****     __attribute__((section( \
  17:../../libdaisy//src/per/qspi.h ****         ".qspiflash_bss"))) /**< used for reading memory in memory_mapped mode. */
  18:../../libdaisy//src/per/qspi.h **** 
  19:../../libdaisy//src/per/qspi.h **** namespace daisy
  20:../../libdaisy//src/per/qspi.h **** {
  21:../../libdaisy//src/per/qspi.h **** /** @addtogroup serial
  22:../../libdaisy//src/per/qspi.h **** @{
  23:../../libdaisy//src/per/qspi.h **** */
  24:../../libdaisy//src/per/qspi.h **** 
  25:../../libdaisy//src/per/qspi.h **** /** 
  26:../../libdaisy//src/per/qspi.h ****  Driver for QSPI peripheral to interface with external flash memory. \n 
  27:../../libdaisy//src/per/qspi.h ****     Currently supported QSPI Devices: \n 
  28:../../libdaisy//src/per/qspi.h ****     * IS25LP080D
  29:../../libdaisy//src/per/qspi.h **** */
  30:../../libdaisy//src/per/qspi.h **** class QSPIHandle
  31:../../libdaisy//src/per/qspi.h **** {
  32:../../libdaisy//src/per/qspi.h ****   public:
  33:../../libdaisy//src/per/qspi.h ****     enum Result
  34:../../libdaisy//src/per/qspi.h ****     {
  35:../../libdaisy//src/per/qspi.h ****         OK = 0,
  36:../../libdaisy//src/per/qspi.h ****         ERR
  37:../../libdaisy//src/per/qspi.h ****     };
  38:../../libdaisy//src/per/qspi.h **** 
  39:../../libdaisy//src/per/qspi.h ****     /** Indicates the current status of the module. 
  40:../../libdaisy//src/per/qspi.h ****          *  Warnings are indicated by a leading W.
  41:../../libdaisy//src/per/qspi.h ****          *  Errors are indicated by a leading E and cause an immediate exit.
  42:../../libdaisy//src/per/qspi.h ****          * 
  43:../../libdaisy//src/per/qspi.h ****          *  \param GOOD - No errors have been reported.
  44:../../libdaisy//src/per/qspi.h ****          *  \param E_HAL_ERROR - HAL code did not return HAL_OK.
  45:../../libdaisy//src/per/qspi.h ****          *  \param E_SWITCHING_MODES - An error was encountered while switching QSPI peripheral mod
  46:../../libdaisy//src/per/qspi.h ****          *  \param E_INVALID_MODE - QSPI should not be written to while the program is executing fr
  47:../../libdaisy//src/per/qspi.h ****          */
  48:../../libdaisy//src/per/qspi.h ****     enum Status
  49:../../libdaisy//src/per/qspi.h ****     {
  50:../../libdaisy//src/per/qspi.h ****         GOOD = 0,
  51:../../libdaisy//src/per/qspi.h ****         E_HAL_ERROR,
  52:../../libdaisy//src/per/qspi.h ****         E_SWITCHING_MODES,
  53:../../libdaisy//src/per/qspi.h ****         E_INVALID_MODE,
  54:../../libdaisy//src/per/qspi.h ****     };
  55:../../libdaisy//src/per/qspi.h **** 
  56:../../libdaisy//src/per/qspi.h ****     /** Configuration structure for interfacing with QSPI Driver */
ARM GAS  C:\Users\nicol\AppData\Local\Temp\cckWUg93.s 			page 17


  57:../../libdaisy//src/per/qspi.h ****     struct Config
  58:../../libdaisy//src/per/qspi.h ****     {
  59:../../libdaisy//src/per/qspi.h ****         /** Flash Devices supported. (Both of these are more-or-less the same, just different sizes
  60:../../libdaisy//src/per/qspi.h ****         enum Device
  61:../../libdaisy//src/per/qspi.h ****         {
  62:../../libdaisy//src/per/qspi.h ****             IS25LP080D,  /**< & */
  63:../../libdaisy//src/per/qspi.h ****             IS25LP064A,  /**< & */
  64:../../libdaisy//src/per/qspi.h ****             DEVICE_LAST, /**< & */
  65:../../libdaisy//src/per/qspi.h ****         };
  66:../../libdaisy//src/per/qspi.h **** 
  67:../../libdaisy//src/per/qspi.h ****         /** 
  68:../../libdaisy//src/per/qspi.h ****         Modes of operation.
  69:../../libdaisy//src/per/qspi.h ****         Memory Mapped mode: QSPI configured so that the QSPI can be
  70:../../libdaisy//src/per/qspi.h ****         read from starting address 0x90000000. Writing is not
  71:../../libdaisy//src/per/qspi.h ****         possible in this mode. \n 
  72:../../libdaisy//src/per/qspi.h ****         Indirect Polling mode: Device driver enabled. 
  73:../../libdaisy//src/per/qspi.h ****         */
  74:../../libdaisy//src/per/qspi.h ****         enum Mode
  75:../../libdaisy//src/per/qspi.h ****         {
  76:../../libdaisy//src/per/qspi.h ****             MEMORY_MAPPED,    /**< & */
  77:../../libdaisy//src/per/qspi.h ****             INDIRECT_POLLING, /**< & */
  78:../../libdaisy//src/per/qspi.h ****             MODE_LAST,
  79:../../libdaisy//src/per/qspi.h ****         };
  80:../../libdaisy//src/per/qspi.h **** 
  81:../../libdaisy//src/per/qspi.h ****         //SCK,  CE# (active low)
  82:../../libdaisy//src/per/qspi.h ****         struct
  83:../../libdaisy//src/per/qspi.h ****         {
  84:../../libdaisy//src/per/qspi.h ****             dsy_gpio_pin io0; /**< & */
  85:../../libdaisy//src/per/qspi.h ****             dsy_gpio_pin io1; /**< & */
  86:../../libdaisy//src/per/qspi.h ****             dsy_gpio_pin io2; /**< & */
  87:../../libdaisy//src/per/qspi.h ****             dsy_gpio_pin io3; /**< & */
  88:../../libdaisy//src/per/qspi.h ****             dsy_gpio_pin clk; /**< & */
  89:../../libdaisy//src/per/qspi.h ****             dsy_gpio_pin ncs; /**< & */
  90:../../libdaisy//src/per/qspi.h ****         } pin_config;
  91:../../libdaisy//src/per/qspi.h **** 
  92:../../libdaisy//src/per/qspi.h ****         Device device;
  93:../../libdaisy//src/per/qspi.h ****         Mode   mode;
  94:../../libdaisy//src/per/qspi.h ****     };
  95:../../libdaisy//src/per/qspi.h **** 
  96:../../libdaisy//src/per/qspi.h ****     /** 
  97:../../libdaisy//src/per/qspi.h ****         Initializes QSPI peripheral, and Resets, and prepares memory for access.
  98:../../libdaisy//src/per/qspi.h ****         \param config should be populated with the mode, device and pin_config before calling this 
  99:../../libdaisy//src/per/qspi.h ****         \return Result::OK or Result::ERR
 100:../../libdaisy//src/per/qspi.h ****         */
 101:../../libdaisy//src/per/qspi.h ****     Result Init(const Config& config);
 102:../../libdaisy//src/per/qspi.h **** 
 103:../../libdaisy//src/per/qspi.h ****     /** Returns the current config. */
 104:../../libdaisy//src/per/qspi.h ****     const Config& GetConfig() const;
 105:../../libdaisy//src/per/qspi.h **** 
 106:../../libdaisy//src/per/qspi.h ****     // Couldn't this just be called before anything else in init? That
 107:../../libdaisy//src/per/qspi.h ****     // would make manually calling it unnecessary.
 108:../../libdaisy//src/per/qspi.h ****     /** 
 109:../../libdaisy//src/per/qspi.h ****         Deinitializes the peripheral
 110:../../libdaisy//src/per/qspi.h ****         This should be called before reinitializing QSPI in a different mode.
 111:../../libdaisy//src/per/qspi.h ****         \return Result::OK or Result::ERR
 112:../../libdaisy//src/per/qspi.h ****         */
 113:../../libdaisy//src/per/qspi.h ****     Result DeInit();
ARM GAS  C:\Users\nicol\AppData\Local\Temp\cckWUg93.s 			page 18


 114:../../libdaisy//src/per/qspi.h **** 
 115:../../libdaisy//src/per/qspi.h ****     /** 
 116:../../libdaisy//src/per/qspi.h ****         Writes a single page to to the specified address on the QSPI chip.
 117:../../libdaisy//src/per/qspi.h ****         For IS25LP*, page size is 256 bytes.
 118:../../libdaisy//src/per/qspi.h ****         \param address Address to write to
 119:../../libdaisy//src/per/qspi.h ****         \param size Buffer size
 120:../../libdaisy//src/per/qspi.h ****         \param buffer Buffer to write
 121:../../libdaisy//src/per/qspi.h ****         \return Result::OK or Result::ERR
 122:../../libdaisy//src/per/qspi.h ****         */
 123:../../libdaisy//src/per/qspi.h ****     Result WritePage(uint32_t address, uint32_t size, uint8_t* buffer);
 124:../../libdaisy//src/per/qspi.h **** 
 125:../../libdaisy//src/per/qspi.h ****     /** 
 126:../../libdaisy//src/per/qspi.h ****         Writes data in buffer to to the QSPI. Starting at address to address+size 
 127:../../libdaisy//src/per/qspi.h ****         \param address Address to write to
 128:../../libdaisy//src/per/qspi.h ****         \param size Buffer size
 129:../../libdaisy//src/per/qspi.h ****         \param buffer Buffer to write
 130:../../libdaisy//src/per/qspi.h ****         \return Result::OK or Result::ERR
 131:../../libdaisy//src/per/qspi.h ****         */
 132:../../libdaisy//src/per/qspi.h ****     Result Write(uint32_t address, uint32_t size, uint8_t* buffer);
 133:../../libdaisy//src/per/qspi.h **** 
 134:../../libdaisy//src/per/qspi.h ****     /** 
 135:../../libdaisy//src/per/qspi.h ****         Erases the area specified on the chip.
 136:../../libdaisy//src/per/qspi.h ****         Erasures will happen by 4K, 32K or 64K increments.
 137:../../libdaisy//src/per/qspi.h ****         Smallest erase possible is 4kB at a time. (on IS25LP*)
 138:../../libdaisy//src/per/qspi.h ****         \param start_addr Address to begin erasing from
 139:../../libdaisy//src/per/qspi.h ****         \param end_addr  Address to stop erasing at
 140:../../libdaisy//src/per/qspi.h ****         \return Result::OK or Result::ERR
 141:../../libdaisy//src/per/qspi.h ****         */
 142:../../libdaisy//src/per/qspi.h ****     Result Erase(uint32_t start_addr, uint32_t end_addr);
 143:../../libdaisy//src/per/qspi.h **** 
 144:../../libdaisy//src/per/qspi.h ****     /**  
 145:../../libdaisy//src/per/qspi.h ****          Erases a single sector of the chip.  
 146:../../libdaisy//src/per/qspi.h ****         TODO: Document the size of this function. 
 147:../../libdaisy//src/per/qspi.h ****         \param addr Address of sector to erase
 148:../../libdaisy//src/per/qspi.h ****         \return Result::OK or Result::ERR
 149:../../libdaisy//src/per/qspi.h ****         */
 150:../../libdaisy//src/per/qspi.h ****     Result EraseSector(uint32_t address);
 151:../../libdaisy//src/per/qspi.h **** 
 152:../../libdaisy//src/per/qspi.h ****     /** Returns the current class status. Useful for debugging.
 153:../../libdaisy//src/per/qspi.h ****      *  \returns Status
 154:../../libdaisy//src/per/qspi.h ****      */
 155:../../libdaisy//src/per/qspi.h ****     Status GetStatus();
 156:../../libdaisy//src/per/qspi.h **** 
 157:../../libdaisy//src/per/qspi.h ****     /** Returns a pointer to the actual memory used 
 158:../../libdaisy//src/per/qspi.h ****      *  The memory at this address is read-only
 159:../../libdaisy//src/per/qspi.h ****      *  to write to it use the Write function.
 160:../../libdaisy//src/per/qspi.h ****      * 
 161:../../libdaisy//src/per/qspi.h ****      *  \param offset returns the pointer starting this 
 162:../../libdaisy//src/per/qspi.h ****      *                many bytes into the memory
 163:../../libdaisy//src/per/qspi.h ****     */
 164:../../libdaisy//src/per/qspi.h ****     void* GetData(uint32_t offset = 0);
 165:../../libdaisy//src/per/qspi.h **** 
 166:../../libdaisy//src/per/qspi.h ****     QSPIHandle() : pimpl_(nullptr) {}
 328              		.loc 13 166 5 view .LVU55
 329              	.LBB172:
 330              	.LBB173:
 331              		.loc 13 166 34 is_stmt 0 view .LVU56
ARM GAS  C:\Users\nicol\AppData\Local\Temp\cckWUg93.s 			page 19


 332 0000 0023     		movs	r3, #0
 333 0002 1248     		ldr	r0, .L25
 334              	.LBE173:
 335              	.LBE172:
 336              	.LBE171:
 337              	.LBE170:
 338              	.LBE169:
  10:MultiFX_nese10.cpp **** 
 339              		.loc 11 10 18 view .LVU57
 340 0004 124A     		ldr	r2, .L25+4
 341 0006 1349     		ldr	r1, .L25+8
 342              	.LBE168:
 343              	.LBE167:
 344              		.loc 11 47 1 view .LVU58
 345 0008 10B5     		push	{r4, lr}
 346              		.cfi_def_cfa_offset 8
 347              		.cfi_offset 4, -8
 348              		.cfi_offset 14, -4
 349              	.LBB200:
 350              	.LBB197:
 351              	.LBB187:
 352              	.LBB186:
 353              	.LBB176:
 354              	.LBB175:
 355              	.LBB174:
 356              		.loc 13 166 34 view .LVU59
 357 000a 0360     		str	r3, [r0]
 358              	.LVL14:
 359              		.loc 13 166 34 view .LVU60
 360              	.LBE174:
 361              	.LBE175:
 362              	.LBE176:
 363              	.LBB177:
 364              	.LBI177:
  62:../../libdaisy//src/hid/audio.h ****     ~AudioHandle() {}
 365              		.loc 7 62 5 is_stmt 1 view .LVU61
 366              	.LBB178:
 367              	.LBB179:
  62:../../libdaisy//src/hid/audio.h ****     ~AudioHandle() {}
 368              		.loc 7 62 35 is_stmt 0 view .LVU62
 369 000c 4361     		str	r3, [r0, #20]
 370              	.LVL15:
  62:../../libdaisy//src/hid/audio.h ****     ~AudioHandle() {}
 371              		.loc 7 62 35 view .LVU63
 372              	.LBE179:
 373              	.LBE178:
 374              	.LBE177:
 375              	.LBB180:
 376              	.LBI180:
  84:../../libdaisy//src/per/adc.h ****     ~AdcHandle() {}
 377              		.loc 6 84 5 is_stmt 1 view .LVU64
  84:../../libdaisy//src/per/adc.h ****     ~AdcHandle() {}
 378              		.loc 6 84 5 is_stmt 0 view .LVU65
 379              	.LBE180:
 380              	.LBB181:
 381              	.LBI181:
 382              		.file 14 "../../libdaisy//src/per/dac.h"
ARM GAS  C:\Users\nicol\AppData\Local\Temp\cckWUg93.s 			page 20


   1:../../libdaisy//src/per/dac.h **** #pragma once
   2:../../libdaisy//src/per/dac.h **** #ifndef DSY_DAC_H
   3:../../libdaisy//src/per/dac.h **** #define DSY_DAC_H
   4:../../libdaisy//src/per/dac.h **** 
   5:../../libdaisy//src/per/dac.h **** #include "daisy_core.h"
   6:../../libdaisy//src/per/dac.h **** 
   7:../../libdaisy//src/per/dac.h **** namespace daisy
   8:../../libdaisy//src/per/dac.h **** {
   9:../../libdaisy//src/per/dac.h **** /** DAC handle for Built-in DAC Peripheral 
  10:../../libdaisy//src/per/dac.h ****  ** 
  11:../../libdaisy//src/per/dac.h ****  ** For now only Normal Mode is supported,
  12:../../libdaisy//src/per/dac.h ****  ** Sample and hold mode provides reduced power consumption, but requires a bit more setup.
  13:../../libdaisy//src/per/dac.h ****  **
  14:../../libdaisy//src/per/dac.h ****  ** For now connecting the DAC through other internal periphearls is also not supported.
  15:../../libdaisy//src/per/dac.h ****  **
  16:../../libdaisy//src/per/dac.h ****  ** Since the DAC channels have dedicated pins we don't need to pass in a pin config like with
  17:../../libdaisy//src/per/dac.h ****  ** other modules. However, it is still important to not try to use the DAC pins for anything else.
  18:../../libdaisy//src/per/dac.h ****  ** DAC Channel 1 is on PA4, and DAC Channel 2 is on PA5
  19:../../libdaisy//src/per/dac.h ****  ***/
  20:../../libdaisy//src/per/dac.h **** class DacHandle
  21:../../libdaisy//src/per/dac.h **** {
  22:../../libdaisy//src/per/dac.h ****   public:
  23:../../libdaisy//src/per/dac.h ****     /** Return Values for the DacHandle class */
  24:../../libdaisy//src/per/dac.h ****     enum class Result
  25:../../libdaisy//src/per/dac.h ****     {
  26:../../libdaisy//src/per/dac.h ****         OK,
  27:../../libdaisy//src/per/dac.h ****         ERR,
  28:../../libdaisy//src/per/dac.h ****     };
  29:../../libdaisy//src/per/dac.h **** 
  30:../../libdaisy//src/per/dac.h ****     /** Selects which channel(s) will be configured for use. */
  31:../../libdaisy//src/per/dac.h ****     enum class Channel
  32:../../libdaisy//src/per/dac.h ****     {
  33:../../libdaisy//src/per/dac.h ****         ONE,
  34:../../libdaisy//src/per/dac.h ****         TWO,
  35:../../libdaisy//src/per/dac.h ****         BOTH,
  36:../../libdaisy//src/per/dac.h ****     };
  37:../../libdaisy//src/per/dac.h **** 
  38:../../libdaisy//src/per/dac.h ****     /** Sets the Mode for the DAC channels.
  39:../../libdaisy//src/per/dac.h ****      **
  40:../../libdaisy//src/per/dac.h ****      ** Polling mode uses the blocking mode to transmit a single value at a time.
  41:../../libdaisy//src/per/dac.h ****      **
  42:../../libdaisy//src/per/dac.h ****      ** DMA mode uses a buffer, and periodically transmits it triggering a 
  43:../../libdaisy//src/per/dac.h ****      ** callback to fill the buffer when it is ready for more samples.
  44:../../libdaisy//src/per/dac.h ****      ***/
  45:../../libdaisy//src/per/dac.h ****     enum class Mode
  46:../../libdaisy//src/per/dac.h ****     {
  47:../../libdaisy//src/per/dac.h ****         POLLING,
  48:../../libdaisy//src/per/dac.h ****         DMA,
  49:../../libdaisy//src/per/dac.h ****     };
  50:../../libdaisy//src/per/dac.h **** 
  51:../../libdaisy//src/per/dac.h ****     /** Sets the number of bits per sample transmitted out of the DAC.
  52:../../libdaisy//src/per/dac.h ****      ** The output range will be: 0V - VDDA
  53:../../libdaisy//src/per/dac.h ****      ** The resolution will be roughly: bitdepth / (VDDA - 0V) 
  54:../../libdaisy//src/per/dac.h ****      ***/
  55:../../libdaisy//src/per/dac.h ****     enum class BitDepth
  56:../../libdaisy//src/per/dac.h ****     {
  57:../../libdaisy//src/per/dac.h ****         BITS_8,
ARM GAS  C:\Users\nicol\AppData\Local\Temp\cckWUg93.s 			page 21


  58:../../libdaisy//src/per/dac.h ****         BITS_12
  59:../../libdaisy//src/per/dac.h ****     };
  60:../../libdaisy//src/per/dac.h **** 
  61:../../libdaisy//src/per/dac.h ****     /** Sets whether the DAC output is buffered for higher drive ability. */
  62:../../libdaisy//src/per/dac.h ****     enum class BufferState
  63:../../libdaisy//src/per/dac.h ****     {
  64:../../libdaisy//src/per/dac.h ****         ENABLED,
  65:../../libdaisy//src/per/dac.h ****         DISABLED,
  66:../../libdaisy//src/per/dac.h ****     };
  67:../../libdaisy//src/per/dac.h **** 
  68:../../libdaisy//src/per/dac.h ****     /** Configuration structure for initializing the DAC structure. */
  69:../../libdaisy//src/per/dac.h ****     struct Config
  70:../../libdaisy//src/per/dac.h ****     {
  71:../../libdaisy//src/per/dac.h ****         /** Target Samplerate in Hz used to configure the internal 
  72:../../libdaisy//src/per/dac.h ****          ** timebase for DMA mode. Does nothing in POLLING mode.
  73:../../libdaisy//src/per/dac.h ****          ** If the value is 0 at Init time this will default to 48000Hz 
  74:../../libdaisy//src/per/dac.h ****          ** otherwise the driver will attempt meet the target.*/
  75:../../libdaisy//src/per/dac.h ****         uint32_t target_samplerate;
  76:../../libdaisy//src/per/dac.h **** 
  77:../../libdaisy//src/per/dac.h ****         Channel     chn;
  78:../../libdaisy//src/per/dac.h ****         Mode        mode;
  79:../../libdaisy//src/per/dac.h ****         BitDepth    bitdepth;
  80:../../libdaisy//src/per/dac.h ****         BufferState buff_state;
  81:../../libdaisy//src/per/dac.h ****     };
  82:../../libdaisy//src/per/dac.h **** 
  83:../../libdaisy//src/per/dac.h ****     DacHandle() : pimpl_(nullptr) {}
 383              		.loc 14 83 5 is_stmt 1 view .LVU66
 384              	.LBB182:
 385              	.LBB183:
 386              		.loc 14 83 33 is_stmt 0 view .LVU67
 387 000e 0362     		str	r3, [r0, #32]
 388              	.LVL16:
 389              		.loc 14 83 33 view .LVU68
 390              	.LBE183:
 391              	.LBE182:
 392              	.LBE181:
 393              	.LBB184:
 394              	.LBI184:
  40:../../libdaisy//src/hid/usb.h **** 
 395              		.loc 5 40 5 is_stmt 1 view .LVU69
  40:../../libdaisy//src/hid/usb.h **** 
 396              		.loc 5 40 5 is_stmt 0 view .LVU70
 397              	.LBE184:
 398              	.LBB185:
 399              	.LBI185:
  77:../../libdaisy//src/sys/system.h ****     ~System() {}
 400              		.loc 4 77 5 is_stmt 1 view .LVU71
  77:../../libdaisy//src/sys/system.h ****     ~System() {}
 401              		.loc 4 77 5 is_stmt 0 view .LVU72
 402              	.LBE185:
 403              	.LBE186:
 404              	.LBE187:
  13:MultiFX_nese10.cpp **** static DelayLine<float, MAX_DELAY> DSY_SDRAM_BSS 	delr;
 405              		.loc 11 13 51 view .LVU73
 406 0010 114C     		ldr	r4, .L25+12
  10:MultiFX_nese10.cpp **** 
 407              		.loc 11 10 18 view .LVU74
ARM GAS  C:\Users\nicol\AppData\Local\Temp\cckWUg93.s 			page 22


 408 0012 FFF7FEFF 		bl	__aeabi_atexit
 409              	.LVL17:
 410              	.LBB188:
 411              	.LBI188:
  85:../../DaisySP//Source/Effects/phaser.h ****     ~Phaser() {}
 412              		.loc 8 85 5 is_stmt 1 view .LVU75
 413              	.LBE188:
 414              	.LBE197:
 415              	.LBE200:
  85:../../DaisySP//Source/Effects/phaser.h ****     ~Phaser() {}
 416              		.loc 8 85 14 view .LVU76
 417              	.LBB201:
 418              	.LBB198:
  12:MultiFX_nese10.cpp **** static DelayLine<float, MAX_DELAY> DSY_SDRAM_BSS 	dell;
 419              		.loc 11 12 24 is_stmt 0 view .LVU77
 420 0016 0E4A     		ldr	r2, .L25+4
 421 0018 1049     		ldr	r1, .L25+16
 422 001a 1148     		ldr	r0, .L25+20
 423 001c FFF7FEFF 		bl	__aeabi_atexit
 424              	.LVL18:
 425              	.LBB189:
 426              	.LBI189:
  23:../../DaisySP//Source/Utility/delayline.h ****     ~DelayLine() {}
 427              		.loc 12 23 5 is_stmt 1 view .LVU78
  23:../../DaisySP//Source/Utility/delayline.h ****     ~DelayLine() {}
 428              		.loc 12 23 5 is_stmt 0 view .LVU79
 429              	.LBE189:
  13:MultiFX_nese10.cpp **** static DelayLine<float, MAX_DELAY> DSY_SDRAM_BSS 	delr;
 430              		.loc 11 13 51 view .LVU80
 431 0020 2146     		mov	r1, r4
 432 0022 0B4A     		ldr	r2, .L25+4
 433 0024 0F48     		ldr	r0, .L25+24
 434 0026 FFF7FEFF 		bl	__aeabi_atexit
 435              	.LVL19:
 436              	.LBB190:
 437              	.LBI190:
  23:../../DaisySP//Source/Utility/delayline.h ****     ~DelayLine() {}
 438              		.loc 12 23 5 is_stmt 1 view .LVU81
  23:../../DaisySP//Source/Utility/delayline.h ****     ~DelayLine() {}
 439              		.loc 12 23 5 is_stmt 0 view .LVU82
 440              	.LBE190:
  14:MultiFX_nese10.cpp **** static Tremolo										trem;
 441              		.loc 11 14 51 view .LVU83
 442 002a 2146     		mov	r1, r4
 443 002c 084A     		ldr	r2, .L25+4
 444 002e 0E48     		ldr	r0, .L25+28
 445 0030 FFF7FEFF 		bl	__aeabi_atexit
 446              	.LVL20:
 447              	.LBB191:
 448              	.LBI191:
  24:../../DaisySP//Source/Effects/tremolo.h ****     ~Tremolo() {}
 449              		.loc 9 24 5 is_stmt 1 view .LVU84
 450              	.LBB192:
 451              	.LBB193:
 452              	.LBI193:
  15:../../DaisySP//Source/Synthesis/oscillator.h ****     ~Oscillator() {}
 453              		.loc 10 15 5 view .LVU85
ARM GAS  C:\Users\nicol\AppData\Local\Temp\cckWUg93.s 			page 23


  15:../../DaisySP//Source/Synthesis/oscillator.h ****     ~Oscillator() {}
 454              		.loc 10 15 5 is_stmt 0 view .LVU86
 455              	.LBE193:
 456              	.LBE192:
 457              	.LBE191:
  15:MultiFX_nese10.cpp **** static Parameter deltime;
 458              		.loc 11 15 25 view .LVU87
 459 0034 064A     		ldr	r2, .L25+4
 460 0036 0D49     		ldr	r1, .L25+32
 461 0038 0D48     		ldr	r0, .L25+36
 462 003a FFF7FEFF 		bl	__aeabi_atexit
 463              	.LVL21:
 464              	.LBB194:
 465              	.LBI194:
  25:../../libdaisy//src/hid/parameter.h ****     /** Destructor */
 466              		.loc 1 25 5 is_stmt 1 view .LVU88
 467              	.LBB195:
 468              	.LBB196:
 469              	.LBI196:
  21:../../libdaisy//src/hid/ctrl.h ****     /** destructor */
 470              		.loc 2 21 5 view .LVU89
  21:../../libdaisy//src/hid/ctrl.h ****     /** destructor */
 471              		.loc 2 21 5 is_stmt 0 view .LVU90
 472              	.LBE196:
 473              	.LBE195:
 474              	.LBE194:
  16:MultiFX_nese10.cpp **** 
 475              		.loc 11 16 18 view .LVU91
 476 003e 044A     		ldr	r2, .L25+4
 477 0040 0C49     		ldr	r1, .L25+40
 478 0042 0D48     		ldr	r0, .L25+44
 479              	.LBE198:
 480              	.LBE201:
 481              		.loc 11 47 1 view .LVU92
 482 0044 BDE81040 		pop	{r4, lr}
 483              		.cfi_restore 14
 484              		.cfi_restore 4
 485              		.cfi_def_cfa_offset 0
 486              	.LBB202:
 487              	.LBB199:
  16:MultiFX_nese10.cpp **** 
 488              		.loc 11 16 18 view .LVU93
 489 0048 FFF7FEBF 		b	__aeabi_atexit
 490              	.LVL22:
 491              	.L26:
 492              		.align	2
 493              	.L25:
 494 004c 00000000 		.word	.LANCHOR0
 495 0050 00000000 		.word	__dso_handle
 496 0054 00000000 		.word	_ZN5daisy9DaisySeedD1Ev
 497 0058 00000000 		.word	_ZN7daisysp9DelayLineIfLj120000EED1Ev
 498 005c 00000000 		.word	_ZN7daisysp6PhaserD1Ev
 499 0060 00000000 		.word	_ZL4phas
 500 0064 0C530700 		.word	_ZL4dell
 501 0068 00000000 		.word	_ZL4delr
 502 006c 00000000 		.word	_ZN7daisysp7TremoloD1Ev
 503 0070 00000000 		.word	.LANCHOR1
ARM GAS  C:\Users\nicol\AppData\Local\Temp\cckWUg93.s 			page 24


 504 0074 00000000 		.word	_ZN5daisy9ParameterD1Ev
 505 0078 00000000 		.word	.LANCHOR2
 506              	.LBE199:
 507              	.LBE202:
 508              		.cfi_endproc
 509              	.LFE4963:
 511              		.section	.init_array,"aw",%init_array
 512              		.align	2
 513 0000 00000000 		.word	_GLOBAL__sub_I_currentDelay(target1)
 514              		.global	which_FX
 515              		.global	effectOn
 516              		.global	dryWet
 517              		.global	cutoff
 518              		.global	delayTarget
 519              		.global	feedback
 520              		.global	currentDelay
 521              		.section	.bss._ZL2hw,"aw",%nobits
 522              		.align	2
 523              		.set	.LANCHOR0,. + 0
 526              	_ZL2hw:
 527 0000 00000000 		.space	60
 527      00000000 
 527      00000000 
 527      00000000 
 527      00000000 
 528              		.section	.bss._ZL4phas,"aw",%nobits
 529              		.align	2
 532              	_ZL4phas:
 533 0000 00000000 		.space	77192
 533      00000000 
 533      00000000 
 533      00000000 
 533      00000000 
 534              		.section	.bss._ZL4trem,"aw",%nobits
 535              		.align	2
 536              		.set	.LANCHOR1,. + 0
 539              	_ZL4trem:
 540 0000 00000000 		.space	48
 540      00000000 
 540      00000000 
 540      00000000 
 540      00000000 
 541              		.section	.bss._ZL7deltime,"aw",%nobits
 542              		.align	2
 543              		.set	.LANCHOR2,. + 0
 546              	_ZL7deltime:
 547 0000 00000000 		.space	56
 547      00000000 
 547      00000000 
 547      00000000 
 547      00000000 
 548              		.section	.bss.currentDelay,"aw",%nobits
 549              		.align	2
 552              	currentDelay:
 553 0000 00000000 		.space	4
 554              		.section	.bss.cutoff,"aw",%nobits
 555              		.align	2
ARM GAS  C:\Users\nicol\AppData\Local\Temp\cckWUg93.s 			page 25


 558              	cutoff:
 559 0000 00000000 		.space	4
 560              		.section	.bss.delayTarget,"aw",%nobits
 561              		.align	2
 564              	delayTarget:
 565 0000 00000000 		.space	4
 566              		.section	.bss.dryWet,"aw",%nobits
 567              		.align	2
 570              	dryWet:
 571 0000 00000000 		.space	16
 571      00000000 
 571      00000000 
 571      00000000 
 572              		.section	.bss.effectOn,"aw",%nobits
 573              		.align	2
 576              	effectOn:
 577 0000 000000   		.space	3
 578              		.section	.bss.feedback,"aw",%nobits
 579              		.align	2
 582              	feedback:
 583 0000 00000000 		.space	4
 584              		.section	.bss.which_FX,"aw",%nobits
 587              	which_FX:
 588 0000 00       		.space	1
 589              		.section	.sdram_bss,"aw"
 590              		.align	2
 593              	_ZL4delr:
 594 0000 00000000 		.space	480012
 594      00000000 
 594      00000000 
 594      00000000 
 594      00000000 
 597              	_ZL4dell:
 598 7530c 00000000 		.space	480012
 598      00000000 
 598      00000000 
 598      00000000 
 598      00000000 
 599              		.text
 600              	.Letext0:
 601              		.file 15 "d:\\programmi\\gnu arm embedded toolchain\\10 2020-q4-major\\arm-none-eabi\\include\\mac
 602              		.file 16 "d:\\programmi\\gnu arm embedded toolchain\\10 2020-q4-major\\arm-none-eabi\\include\\sys
 603              		.file 17 "d:\\programmi\\gnu arm embedded toolchain\\10 2020-q4-major\\arm-none-eabi\\include\\std
 604              		.file 18 "d:\\programmi\\gnu arm embedded toolchain\\10 2020-q4-major\\lib\\gcc\\arm-none-eabi\\10
 605              		.file 19 "d:\\programmi\\gnu arm embedded toolchain\\10 2020-q4-major\\arm-none-eabi\\include\\c++
 606              		.file 20 "d:\\programmi\\gnu arm embedded toolchain\\10 2020-q4-major\\arm-none-eabi\\include\\c++
 607              		.file 21 "d:\\programmi\\gnu arm embedded toolchain\\10 2020-q4-major\\arm-none-eabi\\include\\c++
 608              		.file 22 "d:\\programmi\\gnu arm embedded toolchain\\10 2020-q4-major\\arm-none-eabi\\include\\c++
 609              		.file 23 "d:\\programmi\\gnu arm embedded toolchain\\10 2020-q4-major\\arm-none-eabi\\include\\c++
 610              		.file 24 "d:\\programmi\\gnu arm embedded toolchain\\10 2020-q4-major\\arm-none-eabi\\include\\c++
 611              		.file 25 "d:\\programmi\\gnu arm embedded toolchain\\10 2020-q4-major\\arm-none-eabi\\include\\c++
 612              		.file 26 "d:\\programmi\\gnu arm embedded toolchain\\10 2020-q4-major\\arm-none-eabi\\include\\c++
 613              		.file 27 "d:\\programmi\\gnu arm embedded toolchain\\10 2020-q4-major\\arm-none-eabi\\include\\c++
 614              		.file 28 "d:\\programmi\\gnu arm embedded toolchain\\10 2020-q4-major\\arm-none-eabi\\include\\c++
 615              		.file 29 "d:\\programmi\\gnu arm embedded toolchain\\10 2020-q4-major\\arm-none-eabi\\include\\c++
 616              		.file 30 "d:\\programmi\\gnu arm embedded toolchain\\10 2020-q4-major\\arm-none-eabi\\include\\c++
 617              		.file 31 "d:\\programmi\\gnu arm embedded toolchain\\10 2020-q4-major\\arm-none-eabi\\include\\c++
ARM GAS  C:\Users\nicol\AppData\Local\Temp\cckWUg93.s 			page 26


 618              		.file 32 "d:\\programmi\\gnu arm embedded toolchain\\10 2020-q4-major\\arm-none-eabi\\include\\c++
 619              		.file 33 "d:\\programmi\\gnu arm embedded toolchain\\10 2020-q4-major\\arm-none-eabi\\include\\c++
 620              		.file 34 "d:\\programmi\\gnu arm embedded toolchain\\10 2020-q4-major\\arm-none-eabi\\include\\c++
 621              		.file 35 "d:\\programmi\\gnu arm embedded toolchain\\10 2020-q4-major\\arm-none-eabi\\include\\c++
 622              		.file 36 "d:\\programmi\\gnu arm embedded toolchain\\10 2020-q4-major\\arm-none-eabi\\include\\c++
 623              		.file 37 "d:\\programmi\\gnu arm embedded toolchain\\10 2020-q4-major\\arm-none-eabi\\include\\sys
 624              		.file 38 "d:\\programmi\\gnu arm embedded toolchain\\10 2020-q4-major\\arm-none-eabi\\include\\sys
 625              		.file 39 "d:\\programmi\\gnu arm embedded toolchain\\10 2020-q4-major\\arm-none-eabi\\include\\sys
 626              		.file 40 "d:\\programmi\\gnu arm embedded toolchain\\10 2020-q4-major\\arm-none-eabi\\include\\mat
 627              		.file 41 "d:\\programmi\\gnu arm embedded toolchain\\10 2020-q4-major\\arm-none-eabi\\include\\std
 628              		.file 42 "d:\\programmi\\gnu arm embedded toolchain\\10 2020-q4-major\\arm-none-eabi\\include\\c++
 629              		.file 43 "d:\\programmi\\gnu arm embedded toolchain\\10 2020-q4-major\\arm-none-eabi\\include\\c++
 630              		.file 44 "../../libdaisy//src/daisy_core.h"
 631              		.file 45 "../../libdaisy//src/per/tim.h"
 632              		.file 46 "../../libdaisy//src/per/sai.h"
 633              		.file 47 "../../libdaisy//src/util/wav_format.h"
 634              		.file 48 "../../libdaisy//src/per/gpio.h"
 635              		.file 49 "../../libdaisy//src/dev/sdram.h"
 636              		.file 50 "d:\\programmi\\gnu arm embedded toolchain\\10 2020-q4-major\\lib\\gcc\\arm-none-eabi\\10
 637              		.file 51 "d:\\programmi\\gnu arm embedded toolchain\\10 2020-q4-major\\arm-none-eabi\\include\\std
 638              		.file 52 "d:\\programmi\\gnu arm embedded toolchain\\10 2020-q4-major\\arm-none-eabi\\include\\str
 639              		.file 53 "../../DaisySP//Source/Control/adenv.h"
 640              		.file 54 "../../DaisySP//Source/Utility/dsp.h"
 641              		.file 55 "d:\\programmi\\gnu arm embedded toolchain\\10 2020-q4-major\\arm-none-eabi\\include\\wch
 642              		.file 56 "d:\\programmi\\gnu arm embedded toolchain\\10 2020-q4-major\\arm-none-eabi\\include\\loc
 643              		.file 57 "../../libdaisy//src/dev/sr_595.h"
 644              		.file 58 "<built-in>"
ARM GAS  C:\Users\nicol\AppData\Local\Temp\cckWUg93.s 			page 27

